target datalayout = "e-m:e-p270:32:32-p271:32:32-p272:64:64-i64:64-i128:128-f80:128-n8:16:32:64-S128"
target triple = "x86_64-pc-linux-gnu"

; Function Attrs: mustprogress nounwind uwtable
define noundef i32 @_Z18ufmt_digitvalue_77Ds(i16 noundef zeroext %0) #0 {
  %2 = alloca i32, align 4
  %3 = alloca i16, align 2
  store i16 %0, ptr %3, align 2, !tbaa !3
  %4 = load i16, ptr %3, align 2, !tbaa !3
  %5 = zext i16 %4 to i32
  %6 = icmp sge i32 %5, 48
  br i1 %6, label %7, label %11

7:                                                ; preds = %1
  %8 = load i16, ptr %3, align 2, !tbaa !3
  %9 = zext i16 %8 to i32
  %10 = icmp sle i32 %9, 57
  br i1 %10, label %27, label %11

11:                                               ; preds = %7, %1
  %12 = load i16, ptr %3, align 2, !tbaa !3
  %13 = zext i16 %12 to i32
  %14 = icmp sge i32 %13, 97
  br i1 %14, label %15, label %19

15:                                               ; preds = %11
  %16 = load i16, ptr %3, align 2, !tbaa !3
  %17 = zext i16 %16 to i32
  %18 = icmp sle i32 %17, 122
  br i1 %18, label %27, label %19

19:                                               ; preds = %15, %11
  %20 = load i16, ptr %3, align 2, !tbaa !3
  %21 = zext i16 %20 to i32
  %22 = icmp sge i32 %21, 65
  br i1 %22, label %23, label %43

23:                                               ; preds = %19
  %24 = load i16, ptr %3, align 2, !tbaa !3
  %25 = zext i16 %24 to i32
  %26 = icmp sle i32 %25, 90
  br i1 %26, label %27, label %43

27:                                               ; preds = %23, %15, %7
  %28 = load i16, ptr %3, align 2, !tbaa !3
  %29 = zext i16 %28 to i32
  %30 = sub nsw i32 %29, 48
  %31 = load i16, ptr %3, align 2, !tbaa !3
  %32 = zext i16 %31 to i32
  %33 = icmp sge i32 %32, 65
  br i1 %33, label %34, label %39

34:                                               ; preds = %27
  %35 = load i16, ptr %3, align 2, !tbaa !3
  %36 = zext i16 %35 to i32
  %37 = icmp sge i32 %36, 97
  %38 = select i1 %37, i32 39, i32 7
  br label %40

39:                                               ; preds = %27
  br label %40

40:                                               ; preds = %39, %34
  %41 = phi i32 [ %38, %34 ], [ 0, %39 ]
  %42 = sub nsw i32 %30, %41
  store i32 %42, ptr %2, align 4
  br label %44

43:                                               ; preds = %23, %19
  store i32 -1, ptr %2, align 4
  br label %44

44:                                               ; preds = %43, %40
  %45 = load i32, ptr %2, align 4
  ret i32 %45
}

; Function Attrs: mustprogress nounwind uwtable
define noundef signext i8 @_Z15ufmt_isdigit_77Dsi(i16 noundef zeroext %0, i32 noundef %1) #0 {
  %3 = alloca i16, align 2
  %4 = alloca i32, align 4
  %5 = alloca i32, align 4
  store i16 %0, ptr %3, align 2, !tbaa !3
  store i32 %1, ptr %4, align 4, !tbaa !7
  call void @llvm.lifetime.start.p0(i64 4, ptr %5) #6
  %6 = load i16, ptr %3, align 2, !tbaa !3
  %7 = call noundef i32 @_Z18ufmt_digitvalue_77Ds(i16 noundef zeroext %6)
  store i32 %7, ptr %5, align 4, !tbaa !7
  %8 = load i32, ptr %5, align 4, !tbaa !7
  %9 = load i32, ptr %4, align 4, !tbaa !7
  %10 = icmp slt i32 %8, %9
  br i1 %10, label %11, label %14

11:                                               ; preds = %2
  %12 = load i32, ptr %5, align 4, !tbaa !7
  %13 = icmp sge i32 %12, 0
  br label %14

14:                                               ; preds = %11, %2
  %15 = phi i1 [ false, %2 ], [ %13, %11 ]
  %16 = zext i1 %15 to i8
  call void @llvm.lifetime.end.p0(i64 4, ptr %5) #6
  ret i8 %16
}

; Function Attrs: mustprogress nounwind uwtable
define noundef i64 @_Z13ufmt_uto64_77PKDsPia(ptr noundef %0, ptr noundef %1, i8 noundef signext %2) #0 {
  %4 = alloca ptr, align 8
  %5 = alloca ptr, align 8
  %6 = alloca i8, align 1
  %7 = alloca ptr, align 8
  %8 = alloca i32, align 4
  %9 = alloca i64, align 8
  store ptr %0, ptr %4, align 8, !tbaa !9
  store ptr %1, ptr %5, align 8, !tbaa !12
  store i8 %2, ptr %6, align 1, !tbaa !16
  call void @llvm.lifetime.start.p0(i64 8, ptr %7) #6
  call void @llvm.lifetime.start.p0(i64 4, ptr %8) #6
  call void @llvm.lifetime.start.p0(i64 8, ptr %9) #6
  %10 = load ptr, ptr %4, align 8, !tbaa !9
  %11 = load ptr, ptr %5, align 8, !tbaa !12
  %12 = load i32, ptr %11, align 4, !tbaa !7
  %13 = sext i32 %12 to i64
  %14 = getelementptr inbounds i16, ptr %10, i64 %13
  store ptr %14, ptr %7, align 8, !tbaa !9
  store i32 0, ptr %8, align 4, !tbaa !7
  store i64 0, ptr %9, align 8, !tbaa !14
  br label %15

15:                                               ; preds = %28, %3
  %16 = load ptr, ptr %4, align 8, !tbaa !9
  %17 = load i16, ptr %16, align 2, !tbaa !3
  %18 = load i8, ptr %6, align 1, !tbaa !16
  %19 = sext i8 %18 to i32
  %20 = call noundef signext i8 @_Z15ufmt_isdigit_77Dsi(i16 noundef zeroext %17, i32 noundef %19)
  %21 = icmp ne i8 %20, 0
  br i1 %21, label %22, label %26

22:                                               ; preds = %15
  %23 = load ptr, ptr %4, align 8, !tbaa !9
  %24 = load ptr, ptr %7, align 8, !tbaa !9
  %25 = icmp ult ptr %23, %24
  br label %26

26:                                               ; preds = %22, %15
  %27 = phi i1 [ false, %15 ], [ %25, %22 ]
  br i1 %27, label %28, label %42

28:                                               ; preds = %26
  %29 = load i8, ptr %6, align 1, !tbaa !16
  %30 = sext i8 %29 to i64
  %31 = load i64, ptr %9, align 8, !tbaa !14
  %32 = mul i64 %31, %30
  store i64 %32, ptr %9, align 8, !tbaa !14
  %33 = load ptr, ptr %4, align 8, !tbaa !9
  %34 = getelementptr inbounds nuw i16, ptr %33, i32 1
  store ptr %34, ptr %4, align 8, !tbaa !9
  %35 = load i16, ptr %33, align 2, !tbaa !3
  %36 = call noundef i32 @_Z18ufmt_digitvalue_77Ds(i16 noundef zeroext %35)
  %37 = sext i32 %36 to i64
  %38 = load i64, ptr %9, align 8, !tbaa !14
  %39 = add i64 %38, %37
  store i64 %39, ptr %9, align 8, !tbaa !14
  %40 = load i32, ptr %8, align 4, !tbaa !7
  %41 = add nsw i32 %40, 1
  store i32 %41, ptr %8, align 4, !tbaa !7
  br label %15, !llvm.loop !27

42:                                               ; preds = %26
  %43 = load i32, ptr %8, align 4, !tbaa !7
  %44 = load ptr, ptr %5, align 8, !tbaa !12
  store i32 %43, ptr %44, align 4, !tbaa !7
  %45 = load i64, ptr %9, align 8, !tbaa !14
  call void @llvm.lifetime.end.p0(i64 8, ptr %9) #6
  call void @llvm.lifetime.end.p0(i64 4, ptr %8) #6
  call void @llvm.lifetime.end.p0(i64 8, ptr %7) #6
  ret i64 %45
}